target datalayout = "e-m:e-p270:32:32-p271:32:32-p272:64:64-i64:64-i128:128-f80:128-n8:16:32:64-S128"
target triple = "x86_64-pc-linux-gnu"

%struct.wpacket_st = type { ptr, ptr, i64, i64, i64, ptr, i8 }
%struct.buf_mem_st = type { i64, ptr, i64, i64 }

@.str = private unnamed_addr constant [30 x i8] c"../openssl/test/wpackettest.c\00", align 1
@buf = internal global ptr null, align 8
@.str.14 = private unnamed_addr constant [21 x i8] c"WPACKET_finish(&pkt)\00", align 1
@.str.15 = private unnamed_addr constant [42 x i8] c"WPACKET_get_total_written(&pkt, &written)\00", align 1
@.str.16 = private unnamed_addr constant [10 x i8] c"buf->data\00", align 1
@.str.18 = private unnamed_addr constant [31 x i8] c"WPACKET_init_len(&pkt, buf, 1)\00", align 1
@.str.29 = private unnamed_addr constant [6 x i8] c"alloc\00", align 1
@alloc = internal constant [3 x i8] c"\02\FE\FF", align 1
@.str.51 = private unnamed_addr constant [40 x i8] c"WPACKET_allocate_bytes(&pkt, 2, &bytes)\00", align 1
@.str.52 = private unnamed_addr constant [47 x i8] c"WPACKET_sub_allocate_bytes_u8(&pkt, 2, &bytes)\00", align 1
@.str.53 = private unnamed_addr constant [7 x i8] c"submem\00", align 1
@submem = internal constant [4 x i8] c"\03\02\FE\FF", align 1

; Function Attrs: nounwind uwtable
define internal i32 @cleanup(ptr noundef %0) #0 {
  %2 = alloca ptr, align 8
  store ptr %0, ptr %2, align 8, !tbaa !22
  %3 = load ptr, ptr %2, align 8, !tbaa !22
  call void @WPACKET_cleanup(ptr noundef %3)
  ret i32 0
}

; Function Attrs: nounwind uwtable
define internal i32 @test_WPACKET_allocate_bytes() #0 {
  %1 = alloca i32, align 4
  %2 = alloca %struct.wpacket_st, align 8
  %3 = alloca i64, align 8
  %4 = alloca ptr, align 8
  %5 = alloca i32, align 4
  call void @llvm.lifetime.start.p0(i64 56, ptr %2) #6
  call void @llvm.lifetime.start.p0(i64 8, ptr %3) #6
  call void @llvm.lifetime.start.p0(i64 8, ptr %4) #6
  %6 = load ptr, ptr @buf, align 8, !tbaa !4
  %7 = call i32 @WPACKET_init_len(ptr noundef %2, ptr noundef %6, i64 noundef 1)
  %8 = icmp ne i32 %7, 0
  %9 = zext i1 %8 to i32
  %10 = call i32 @test_true(ptr noundef @.str, i32 noundef 336, ptr noundef @.str.18, i32 noundef %9)
  %11 = icmp ne i32 %10, 0
  br i1 %11, label %12, label %18

12:                                               ; preds = %0
  %13 = call i32 @WPACKET_allocate_bytes(ptr noundef %2, i64 noundef 2, ptr noundef %4)
  %14 = icmp ne i32 %13, 0
  %15 = zext i1 %14 to i32
  %16 = call i32 @test_true(ptr noundef @.str, i32 noundef 337, ptr noundef @.str.51, i32 noundef %15)
  %17 = icmp ne i32 %16, 0
  br i1 %17, label %20, label %18

18:                                               ; preds = %12, %0
  %19 = call i32 @cleanup(ptr noundef %2)
  store i32 %19, ptr %1, align 4
  store i32 1, ptr %5, align 4
  br label %86

20:                                               ; preds = %12
  %21 = load ptr, ptr %4, align 8, !tbaa !18
  %22 = getelementptr inbounds i8, ptr %21, i64 0
  store i8 -2, ptr %22, align 1, !tbaa !19
  %23 = load ptr, ptr %4, align 8, !tbaa !18
  %24 = getelementptr inbounds i8, ptr %23, i64 1
  store i8 -1, ptr %24, align 1, !tbaa !19
  %25 = call i32 @WPACKET_finish(ptr noundef %2)
  %26 = icmp ne i32 %25, 0
  %27 = zext i1 %26 to i32
  %28 = call i32 @test_true(ptr noundef @.str, i32 noundef 341, ptr noundef @.str.14, i32 noundef %27)
  %29 = icmp ne i32 %28, 0
  br i1 %29, label %30, label %43

30:                                               ; preds = %20
  %31 = call i32 @WPACKET_get_total_written(ptr noundef %2, ptr noundef %3)
  %32 = icmp ne i32 %31, 0
  %33 = zext i1 %32 to i32
  %34 = call i32 @test_true(ptr noundef @.str, i32 noundef 342, ptr noundef @.str.15, i32 noundef %33)
  %35 = icmp ne i32 %34, 0
  br i1 %35, label %36, label %43

36:                                               ; preds = %30
  %37 = load ptr, ptr @buf, align 8, !tbaa !4
  %38 = getelementptr inbounds nuw %struct.buf_mem_st, ptr %37, i32 0, i32 1
  %39 = load ptr, ptr %38, align 8, !tbaa !9
  %40 = load i64, ptr %3, align 8, !tbaa !13
  %41 = call i32 @test_mem_eq(ptr noundef @.str, i32 noundef 343, ptr noundef @.str.16, ptr noundef @.str.29, ptr noundef %39, i64 noundef %40, ptr noundef @alloc, i64 noundef 3)
  %42 = icmp ne i32 %41, 0
  br i1 %42, label %45, label %43

43:                                               ; preds = %36, %30, %20
  %44 = call i32 @cleanup(ptr noundef %2)
  store i32 %44, ptr %1, align 4
  store i32 1, ptr %5, align 4
  br label %86

45:                                               ; preds = %36
  %46 = load ptr, ptr @buf, align 8, !tbaa !4
  %47 = call i32 @WPACKET_init_len(ptr noundef %2, ptr noundef %46, i64 noundef 1)
  %48 = icmp ne i32 %47, 0
  %49 = zext i1 %48 to i32
  %50 = call i32 @test_true(ptr noundef @.str, i32 noundef 347, ptr noundef @.str.18, i32 noundef %49)
  %51 = icmp ne i32 %50, 0
  br i1 %51, label %52, label %58

52:                                               ; preds = %45
  %53 = call i32 @WPACKET_sub_allocate_bytes__(ptr noundef %2, i64 noundef 2, ptr noundef %4, i64 noundef 1)
  %54 = icmp ne i32 %53, 0
  %55 = zext i1 %54 to i32
  %56 = call i32 @test_true(ptr noundef @.str, i32 noundef 348, ptr noundef @.str.52, i32 noundef %55)
  %57 = icmp ne i32 %56, 0
  br i1 %57, label %60, label %58

58:                                               ; preds = %52, %45
  %59 = call i32 @cleanup(ptr noundef %2)
  store i32 %59, ptr %1, align 4
  store i32 1, ptr %5, align 4
  br label %86

60:                                               ; preds = %52
  %61 = load ptr, ptr %4, align 8, !tbaa !18
  %62 = getelementptr inbounds i8, ptr %61, i64 0
  store i8 -2, ptr %62, align 1, !tbaa !19
  %63 = load ptr, ptr %4, align 8, !tbaa !18
  %64 = getelementptr inbounds i8, ptr %63, i64 1
  store i8 -1, ptr %64, align 1, !tbaa !19
  %65 = call i32 @WPACKET_finish(ptr noundef %2)
  %66 = icmp ne i32 %65, 0
  %67 = zext i1 %66 to i32
  %68 = call i32 @test_true(ptr noundef @.str, i32 noundef 352, ptr noundef @.str.14, i32 noundef %67)
  %69 = icmp ne i32 %68, 0
  br i1 %69, label %70, label %83

70:                                               ; preds = %60
  %71 = call i32 @WPACKET_get_total_written(ptr noundef %2, ptr noundef %3)
  %72 = icmp ne i32 %71, 0
  %73 = zext i1 %72 to i32
  %74 = call i32 @test_true(ptr noundef @.str, i32 noundef 353, ptr noundef @.str.15, i32 noundef %73)
  %75 = icmp ne i32 %74, 0
  br i1 %75, label %76, label %83

76:                                               ; preds = %70
  %77 = load ptr, ptr @buf, align 8, !tbaa !4
  %78 = getelementptr inbounds nuw %struct.buf_mem_st, ptr %77, i32 0, i32 1
  %79 = load ptr, ptr %78, align 8, !tbaa !9
  %80 = load i64, ptr %3, align 8, !tbaa !13
  %81 = call i32 @test_mem_eq(ptr noundef @.str, i32 noundef 354, ptr noundef @.str.16, ptr noundef @.str.53, ptr noundef %79, i64 noundef %80, ptr noundef @submem, i64 noundef 4)
  %82 = icmp ne i32 %81, 0
  br i1 %82, label %85, label %83

83:                                               ; preds = %76, %70, %60
  %84 = call i32 @cleanup(ptr noundef %2)
  store i32 %84, ptr %1, align 4
  store i32 1, ptr %5, align 4
  br label %86

85:                                               ; preds = %76
  store i32 1, ptr %1, align 4
  store i32 1, ptr %5, align 4
  br label %86

86:                                               ; preds = %85, %83, %58, %43, %18
  call void @llvm.lifetime.end.p0(i64 8, ptr %4) #6
  call void @llvm.lifetime.end.p0(i64 8, ptr %3) #6
  call void @llvm.lifetime.end.p0(i64 56, ptr %2) #6
  %87 = load i32, ptr %1, align 4
  ret i32 %87
}