; Function Attrs: nounwind uwtable
define internal range(i32 0, 2) i32 @test_WPACKET_allocate_bytes() #0 {
  %1 = alloca %struct.wpacket_st, align 8
  %2 = alloca i64, align 8
  %3 = alloca ptr, align 8
  call void @llvm.lifetime.start.p0(i64 56, ptr nonnull %1) #4
  call void @llvm.lifetime.start.p0(i64 8, ptr nonnull %2) #4
  call void @llvm.lifetime.start.p0(i64 8, ptr nonnull %3) #4
  %4 = load ptr, ptr @buf, align 8, !tbaa !4
  %5 = call i32 @WPACKET_init_len(ptr noundef nonnull %1, ptr noundef %4, i64 noundef 1) #4
  %6 = icmp ne i32 %5, 0
  %7 = zext i1 %6 to i32
  %8 = call i32 @test_true(ptr noundef nonnull @.str, i32 noundef 336, ptr noundef nonnull @.str.18, i32 noundef %7) #4
  %.not = icmp eq i32 %8, 0
  br i1 %.not, label %.sink.split, label %9

9:                                                ; preds = %0
  %10 = call i32 @WPACKET_allocate_bytes(ptr noundef nonnull %1, i64 noundef 2, ptr noundef nonnull %3) #4
  %11 = icmp ne i32 %10, 0
  %12 = zext i1 %11 to i32
  %13 = call i32 @test_true(ptr noundef nonnull @.str, i32 noundef 337, ptr noundef nonnull @.str.51, i32 noundef %12) #4
  %.not1 = icmp eq i32 %13, 0
  br i1 %.not1, label %.sink.split, label %14

14:                                               ; preds = %9
  %15 = load ptr, ptr %3, align 8, !tbaa !16
  store i8 -2, ptr %15, align 1, !tbaa !17
  %16 = load ptr, ptr %3, align 8, !tbaa !16
  %17 = getelementptr inbounds nuw i8, ptr %16, i64 1
  store i8 -1, ptr %17, align 1, !tbaa !17
  %18 = call i32 @WPACKET_finish(ptr noundef nonnull %1) #4
  %19 = icmp ne i32 %18, 0
  %20 = zext i1 %19 to i32
  %21 = call i32 @test_true(ptr noundef nonnull @.str, i32 noundef 341, ptr noundef nonnull @.str.14, i32 noundef %20) #4
  %.not2 = icmp eq i32 %21, 0
  br i1 %.not2, label %.sink.split, label %22

22:                                               ; preds = %14
  %23 = call i32 @WPACKET_get_total_written(ptr noundef nonnull %1, ptr noundef nonnull %2) #4
  %24 = icmp ne i32 %23, 0
  %25 = zext i1 %24 to i32
  %26 = call i32 @test_true(ptr noundef nonnull @.str, i32 noundef 342, ptr noundef nonnull @.str.15, i32 noundef %25) #4
  %.not3 = icmp eq i32 %26, 0
  br i1 %.not3, label %.sink.split, label %27

27:                                               ; preds = %22
  %28 = load ptr, ptr @buf, align 8, !tbaa !4
  %29 = getelementptr inbounds nuw i8, ptr %28, i64 8
  %30 = load ptr, ptr %29, align 8, !tbaa !9
  %31 = load i64, ptr %2, align 8, !tbaa !13
  %32 = call i32 @test_mem_eq(ptr noundef nonnull @.str, i32 noundef 343, ptr noundef nonnull @.str.16, ptr noundef nonnull @.str.29, ptr noundef %30, i64 noundef %31, ptr noundef nonnull @alloc, i64 noundef 3) #4
  %.not4 = icmp eq i32 %32, 0
  br i1 %.not4, label %.sink.split, label %33

33:                                               ; preds = %27
  %34 = load ptr, ptr @buf, align 8, !tbaa !4
  %35 = call i32 @WPACKET_init_len(ptr noundef nonnull %1, ptr noundef %34, i64 noundef 1) #4
  %36 = icmp ne i32 %35, 0
  %37 = zext i1 %36 to i32
  %38 = call i32 @test_true(ptr noundef nonnull @.str, i32 noundef 347, ptr noundef nonnull @.str.18, i32 noundef %37) #4
  %.not5 = icmp eq i32 %38, 0
  br i1 %.not5, label %.sink.split, label %39

39:                                               ; preds = %33
  %40 = call i32 @WPACKET_sub_allocate_bytes__(ptr noundef nonnull %1, i64 noundef 2, ptr noundef nonnull %3, i64 noundef 1) #4
  %41 = icmp ne i32 %40, 0
  %42 = zext i1 %41 to i32
  %43 = call i32 @test_true(ptr noundef nonnull @.str, i32 noundef 348, ptr noundef nonnull @.str.52, i32 noundef %42) #4
  %.not6 = icmp eq i32 %43, 0
  br i1 %.not6, label %.sink.split, label %44

44:                                               ; preds = %39
  %45 = load ptr, ptr %3, align 8, !tbaa !16
  store i8 -2, ptr %45, align 1, !tbaa !17
  %46 = load ptr, ptr %3, align 8, !tbaa !16
  %47 = getelementptr inbounds nuw i8, ptr %46, i64 1
  store i8 -1, ptr %47, align 1, !tbaa !17
  %48 = call i32 @WPACKET_finish(ptr noundef nonnull %1) #4
  %49 = icmp ne i32 %48, 0
  %50 = zext i1 %49 to i32
  %51 = call i32 @test_true(ptr noundef nonnull @.str, i32 noundef 352, ptr noundef nonnull @.str.14, i32 noundef %50) #4
  %.not7 = icmp eq i32 %51, 0
  br i1 %.not7, label %.sink.split, label %52

52:                                               ; preds = %44
  %53 = call i32 @WPACKET_get_total_written(ptr noundef nonnull %1, ptr noundef nonnull %2) #4
  %54 = icmp ne i32 %53, 0
  %55 = zext i1 %54 to i32
  %56 = call i32 @test_true(ptr noundef nonnull @.str, i32 noundef 353, ptr noundef nonnull @.str.15, i32 noundef %55) #4
  %.not8 = icmp eq i32 %56, 0
  br i1 %.not8, label %.sink.split, label %57

57:                                               ; preds = %52
  %58 = load ptr, ptr @buf, align 8, !tbaa !4
  %59 = getelementptr inbounds nuw i8, ptr %58, i64 8
  %60 = load ptr, ptr %59, align 8, !tbaa !9
  %61 = load i64, ptr %2, align 8, !tbaa !13
  %62 = call i32 @test_mem_eq(ptr noundef nonnull @.str, i32 noundef 354, ptr noundef nonnull @.str.16, ptr noundef nonnull @.str.53, ptr noundef %60, i64 noundef %61, ptr noundef nonnull @submem, i64 noundef 4) #4
  %.not9 = icmp eq i32 %62, 0
  br i1 %.not9, label %.sink.split, label %63

.sink.split:                                      ; preds = %44, %52, %57, %33, %39, %14, %22, %27, %0, %9
  call void @WPACKET_cleanup(ptr noundef nonnull %1) #4
  br label %63

63:                                               ; preds = %.sink.split, %57
  %.0 = phi i32 [ 1, %57 ], [ 0, %.sink.split ]
  call void @llvm.lifetime.end.p0(i64 8, ptr nonnull %3) #4
  call void @llvm.lifetime.end.p0(i64 8, ptr nonnull %2) #4
  call void @llvm.lifetime.end.p0(i64 56, ptr nonnull %1) #4
  ret i32 %.0
}